; Function Attrs: mustprogress nofree norecurse nosync nounwind willreturn memory(read, inaccessiblemem: none) uwtable
define i64 @_Z16getNumPmeDomainsPK12gmx_domdec_t(ptr noundef readonly %0) local_unnamed_addr #13 {
  %.not = icmp eq ptr %0, null
  br i1 %.not, label %7, label %2

2:                                                ; preds = %1
  %3 = getelementptr inbounds nuw i8, ptr %0, i64 912
  %4 = load ptr, ptr %3, align 8, !tbaa !8
  %5 = getelementptr inbounds nuw i8, ptr %4, i64 64
  %6 = load i64, ptr %5, align 8
  br label %7

7:                                                ; preds = %1, %2
  %.sroa.0.0.insert.insert = phi i64 [ %6, %2 ], [ 4294967297, %1 ]
  ret i64 %.sroa.0.0.insert.insert
}